; Function Attrs: nounwind uwtable
define ptr @l_Lean_Widget_addDiffTags(i8 noundef zeroext %0, ptr noundef %1, ptr noundef %2, ptr noundef %3, ptr noundef %4, ptr noundef %5, ptr noundef %6, ptr noundef %7) local_unnamed_addr #0 {
  tail call void @lean_inc_heartbeat() #7
  %9 = tail call noalias ptr @mi_malloc_small(i64 noundef 32) #7
  %10 = icmp eq ptr %9, null
  br i1 %10, label %11, label %lean_alloc_closure.exit

11:                                               ; preds = %8
  tail call void @lean_internal_panic_out_of_memory() #8
  unreachable

lean_alloc_closure.exit:                          ; preds = %8
  %12 = zext i8 %0 to i64
  %13 = shl nuw nsw i64 %12, 1
  %14 = or disjoint i64 %13, 1
  %15 = inttoptr i64 %14 to ptr
  %16 = getelementptr inbounds nuw i8, ptr %9, i64 4
  store i32 1, ptr %9, align 4, !tbaa !8
  store i32 -184549344, ptr %16, align 4
  %17 = getelementptr inbounds nuw i8, ptr %9, i64 8
  store ptr @l_Lean_Widget_addDiffTags___lambda__1___boxed, ptr %17, align 8, !tbaa !4
  %18 = getelementptr inbounds nuw i8, ptr %9, i64 16
  store i16 8, ptr %18, align 8, !tbaa !12
  %19 = getelementptr inbounds nuw i8, ptr %9, i64 18
  store i16 1, ptr %19, align 2, !tbaa !12
  %20 = getelementptr inbounds nuw i8, ptr %9, i64 24
  store ptr %15, ptr %20, align 8, !tbaa !4
  %21 = icmp eq i8 %0, 0
  br i1 %21, label %22, label %42

22:                                               ; preds = %lean_alloc_closure.exit
  %23 = getelementptr inbounds nuw i8, ptr %1, i64 8
  %24 = load ptr, ptr %23, align 8, !tbaa !4
  %25 = ptrtoint ptr %24 to i64
  %26 = and i64 %25, 1
  %.not37 = icmp eq i64 %26, 0
  br i1 %.not37, label %27, label %lean_inc.exit29

27:                                               ; preds = %22
  %.val.i = load i32, ptr %24, align 4, !tbaa !8
  %28 = icmp sgt i32 %.val.i, 0
  br i1 %28, label %29, label %31, !prof !11

29:                                               ; preds = %27
  %30 = add nuw i32 %.val.i, 1
  store i32 %30, ptr %24, align 4, !tbaa !8
  br label %lean_inc.exit29

31:                                               ; preds = %27
  %.not.i32 = icmp eq i32 %.val.i, 0
  br i1 %.not.i32, label %lean_inc.exit29, label %32

32:                                               ; preds = %31
  tail call void @lean_inc_ref_cold(ptr noundef nonnull %24) #7
  br label %lean_inc.exit29

lean_inc.exit29:                                  ; preds = %32, %31, %29, %22
  %33 = ptrtoint ptr %1 to i64
  %34 = and i64 %33, 1
  %.not38 = icmp eq i64 %34, 0
  br i1 %.not38, label %35, label %lean_dec.exit28

35:                                               ; preds = %lean_inc.exit29
  %36 = load i32, ptr %1, align 4, !tbaa !8
  %37 = icmp sgt i32 %36, 1
  br i1 %37, label %38, label %40, !prof !11

38:                                               ; preds = %35
  %39 = add nsw i32 %36, -1
  store i32 %39, ptr %1, align 4, !tbaa !8
  br label %lean_dec.exit28

40:                                               ; preds = %35
  %.not.i = icmp eq i32 %36, 0
  br i1 %.not.i, label %lean_dec.exit28, label %41

41:                                               ; preds = %40
  tail call void @lean_dec_ref_cold(ptr noundef nonnull %1) #7
  br label %lean_dec.exit28

42:                                               ; preds = %lean_alloc_closure.exit
  %43 = getelementptr inbounds nuw i8, ptr %1, i64 16
  %44 = load ptr, ptr %43, align 8, !tbaa !4
  %45 = ptrtoint ptr %44 to i64
  %46 = and i64 %45, 1
  %.not = icmp eq i64 %46, 0
  br i1 %.not, label %47, label %lean_inc.exit

47:                                               ; preds = %42
  %.val.i33 = load i32, ptr %44, align 4, !tbaa !8
  %48 = icmp sgt i32 %.val.i33, 0
  br i1 %48, label %49, label %51, !prof !11

49:                                               ; preds = %47
  %50 = add nuw i32 %.val.i33, 1
  store i32 %50, ptr %44, align 4, !tbaa !8
  br label %lean_inc.exit

51:                                               ; preds = %47
  %.not.i34 = icmp eq i32 %.val.i33, 0
  br i1 %.not.i34, label %lean_inc.exit, label %52

52:                                               ; preds = %51
  tail call void @lean_inc_ref_cold(ptr noundef nonnull %44) #7
  br label %lean_inc.exit

lean_inc.exit:                                    ; preds = %52, %51, %49, %42
  %53 = ptrtoint ptr %1 to i64
  %54 = and i64 %53, 1
  %.not36 = icmp eq i64 %54, 0
  br i1 %.not36, label %55, label %lean_dec.exit28

55:                                               ; preds = %lean_inc.exit
  %56 = load i32, ptr %1, align 4, !tbaa !8
  %57 = icmp sgt i32 %56, 1
  br i1 %57, label %58, label %60, !prof !11

58:                                               ; preds = %55
  %59 = add nsw i32 %56, -1
  store i32 %59, ptr %1, align 4, !tbaa !8
  br label %lean_dec.exit28

60:                                               ; preds = %55
  %.not.i30 = icmp eq i32 %56, 0
  br i1 %.not.i30, label %lean_dec.exit28, label %61

61:                                               ; preds = %60
  tail call void @lean_dec_ref_cold(ptr noundef nonnull %1) #7
  br label %lean_dec.exit28

lean_dec.exit28:                                  ; preds = %lean_inc.exit, %58, %60, %61, %lean_inc.exit29, %38, %40, %41
  %.sink = phi ptr [ %24, %41 ], [ %24, %40 ], [ %24, %38 ], [ %24, %lean_inc.exit29 ], [ %44, %61 ], [ %44, %60 ], [ %44, %58 ], [ %44, %lean_inc.exit ]
  %62 = tail call ptr @l_Lean_Widget_CodeWithInfos_mergePosMap___at_Lean_Widget_addDiffTags___spec__1(ptr noundef nonnull %9, ptr noundef %.sink, ptr noundef %2, ptr noundef %3, ptr noundef %4, ptr noundef %5, ptr noundef %6, ptr noundef %7)
  ret ptr %62
}